target datalayout = "e-m:e-p270:32:32-p271:32:32-p272:64:64-i64:64-i128:128-f80:128-n8:16:32:64-S128"
target triple = "x86_64-pc-linux-gnu"

; Function Attrs: nounwind sspstrong uwtable
define internal i64 @pm_encoding_shift_jis_char_width(ptr noundef %0, i64 noundef %1) #0 {
  %3 = alloca i64, align 8
  %4 = alloca ptr, align 8
  %5 = alloca i64, align 8
  store ptr %0, ptr %4, align 8, !tbaa !7
  store i64 %1, ptr %5, align 8, !tbaa !12
  %6 = load ptr, ptr %4, align 8, !tbaa !7
  %7 = getelementptr i8, ptr %6, i64 0
  %8 = load i8, ptr %7, align 1, !tbaa !16
  %9 = zext i8 %8 to i32
  %10 = icmp slt i32 %9, 128
  br i1 %10, label %23, label %11

11:                                               ; preds = %2
  %12 = load ptr, ptr %4, align 8, !tbaa !7
  %13 = getelementptr i8, ptr %12, i64 0
  %14 = load i8, ptr %13, align 1, !tbaa !16
  %15 = zext i8 %14 to i32
  %16 = icmp sge i32 %15, 161
  br i1 %16, label %17, label %24

17:                                               ; preds = %11
  %18 = load ptr, ptr %4, align 8, !tbaa !7
  %19 = getelementptr i8, ptr %18, i64 0
  %20 = load i8, ptr %19, align 1, !tbaa !16
  %21 = zext i8 %20 to i32
  %22 = icmp sle i32 %21, 223
  br i1 %22, label %23, label %24

23:                                               ; preds = %17, %2
  store i64 1, ptr %3, align 8
  br label %71

24:                                               ; preds = %17, %11
  %25 = load i64, ptr %5, align 8, !tbaa !12
  %26 = icmp sgt i64 %25, 1
  br i1 %26, label %27, label %70

27:                                               ; preds = %24
  %28 = load ptr, ptr %4, align 8, !tbaa !7
  %29 = getelementptr i8, ptr %28, i64 0
  %30 = load i8, ptr %29, align 1, !tbaa !16
  %31 = zext i8 %30 to i32
  %32 = icmp sge i32 %31, 129
  br i1 %32, label %33, label %39

33:                                               ; preds = %27
  %34 = load ptr, ptr %4, align 8, !tbaa !7
  %35 = getelementptr i8, ptr %34, i64 0
  %36 = load i8, ptr %35, align 1, !tbaa !16
  %37 = zext i8 %36 to i32
  %38 = icmp sle i32 %37, 159
  br i1 %38, label %51, label %39

39:                                               ; preds = %33, %27
  %40 = load ptr, ptr %4, align 8, !tbaa !7
  %41 = getelementptr i8, ptr %40, i64 0
  %42 = load i8, ptr %41, align 1, !tbaa !16
  %43 = zext i8 %42 to i32
  %44 = icmp sge i32 %43, 224
  br i1 %44, label %45, label %70

45:                                               ; preds = %39
  %46 = load ptr, ptr %4, align 8, !tbaa !7
  %47 = getelementptr i8, ptr %46, i64 0
  %48 = load i8, ptr %47, align 1, !tbaa !16
  %49 = zext i8 %48 to i32
  %50 = icmp sle i32 %49, 252
  br i1 %50, label %51, label %70

51:                                               ; preds = %45, %33
  %52 = load ptr, ptr %4, align 8, !tbaa !7
  %53 = getelementptr i8, ptr %52, i64 1
  %54 = load i8, ptr %53, align 1, !tbaa !16
  %55 = zext i8 %54 to i32
  %56 = icmp sge i32 %55, 64
  br i1 %56, label %57, label %70

57:                                               ; preds = %51
  %58 = load ptr, ptr %4, align 8, !tbaa !7
  %59 = getelementptr i8, ptr %58, i64 1
  %60 = load i8, ptr %59, align 1, !tbaa !16
  %61 = zext i8 %60 to i32
  %62 = icmp sle i32 %61, 252
  br i1 %62, label %63, label %70

63:                                               ; preds = %57
  %64 = load ptr, ptr %4, align 8, !tbaa !7
  %65 = getelementptr i8, ptr %64, i64 1
  %66 = load i8, ptr %65, align 1, !tbaa !16
  %67 = zext i8 %66 to i32
  %68 = icmp ne i32 %67, 127
  br i1 %68, label %69, label %70

69:                                               ; preds = %63
  store i64 2, ptr %3, align 8
  br label %71

70:                                               ; preds = %63, %57, %51, %45, %39, %24
  store i64 0, ptr %3, align 8
  br label %71

71:                                               ; preds = %70, %69, %23
  %72 = load i64, ptr %3, align 8
  ret i64 %72
}