; Function Attrs: mustprogress nofree norecurse nosync nounwind sspstrong willreturn memory(argmem: read) uwtable
define internal range(i64 0, 3) i64 @pm_encoding_shift_jis_char_width(ptr noundef readonly captures(none) %0, i64 noundef %1) #2 {
  %3 = load i8, ptr %0, align 1, !tbaa !7
  %4 = icmp sgt i8 %3, -1
  %5 = add nsw i8 %3, 95
  %or.cond = icmp ult i8 %5, 63
  %or.cond19 = select i1 %4, i1 true, i1 %or.cond
  br i1 %or.cond19, label %17, label %6

6:                                                ; preds = %2
  %7 = icmp sgt i64 %1, 1
  br i1 %7, label %8, label %16

8:                                                ; preds = %6
  %9 = icmp ne i8 %3, -128
  %10 = icmp samesign ult i8 %3, -96
  %or.cond15 = and i1 %9, %10
  %11 = add nsw i8 %3, 32
  %or.cond16 = icmp ult i8 %11, 29
  %or.cond20 = select i1 %or.cond15, i1 true, i1 %or.cond16
  br i1 %or.cond20, label %12, label %16

12:                                               ; preds = %8
  %13 = getelementptr i8, ptr %0, i64 1
  %14 = load i8, ptr %13, align 1, !tbaa !7
  %15 = add i8 %14, 3
  %or.cond17 = icmp ult i8 %15, 67
  %.not = icmp eq i8 %14, 127
  %or.cond18 = or i1 %.not, %or.cond17
  br i1 %or.cond18, label %16, label %17

16:                                               ; preds = %8, %12, %6
  br label %17

17:                                               ; preds = %12, %2, %16
  %.0 = phi i64 [ 0, %16 ], [ 1, %2 ], [ 2, %12 ]
  ret i64 %.0
}